#!/usr/bin/env ulm
#TEXT 4
# from: generated by ulmld
0x0000000000000000: 56 00 00 01 #       ldzwq @w3(_start), %1
0x0000000000000004: 5D 00 00 01 #       shldwq @w2(_start), %1
0x0000000000000008: 5D 00 00 01 #       shldwq @w1(_start), %1
0x000000000000000C: 5D 00 B4 01 #       shldwq @w0(_start), %1
0x0000000000000010: 40 01 02 00 #       jmp %1, %2
# from: hello.o
#main:
0x0000000000000014: 28 03 00 02 # 	movq 	%RET, 	0(%SP)
0x0000000000000018: 28 01 08 02 # 	movq 	%FP, 	8(%SP)
0x000000000000001C: 38 00 02 01 # 	addq 	0, 	%SP, 	%FP
0x0000000000000020: 39 08 02 02 # 	subq 	8, 	%SP, 	%SP
0x0000000000000024: 56 00 00 04 # 	ldzwq 	0, 	%4
0x0000000000000028: 28 04 F8 01 # 	movq 	%4, 	-8(%FP)
#check.for.cond.L5:
0x000000000000002C: 18 F8 01 04 # 	movq 	-8(%FP), 	%4
0x0000000000000030: 39 03 04 00 # 	subq 	3, 	%4, 	%0
0x0000000000000034: 49 00 00 1B # 	jae 	for.end.L7
0x0000000000000038: 39 28 02 02 # 	subq 	40, 	%SP, 	%SP
0x000000000000003C: 56 00 00 04 # 	ldzwq 	@w3(str.L3), 	%4
0x0000000000000040: 5D 00 00 04 # 	shldwq 	@w2(str.L3), 	%4
0x0000000000000044: 5D 00 00 04 # 	shldwq 	@w1(str.L3), 	%4
0x0000000000000048: 5D 0F 20 04 # 	shldwq 	@w0(str.L3), 	%4
0x000000000000004C: 28 04 18 02 # 	movq 	%4, 	24(%SP)
0x0000000000000050: 56 00 00 04 # 	ldzwq 	@w3(msg), 	%4
0x0000000000000054: 5D 00 00 04 # 	shldwq 	@w2(msg), 	%4
0x0000000000000058: 5D 00 00 04 # 	shldwq 	@w1(msg), 	%4
0x000000000000005C: 5D 0F 08 04 # 	shldwq 	@w0(msg), 	%4
0x0000000000000060: 18 F8 01 05 # 	movq 	-8(%FP), 	%5
0x0000000000000064: 3C 08 05 05 # 	imulq 	8, 	%5, 	%5
0x0000000000000068: 30 05 04 06 # 	addq 	%5, 	%4, 	%6
0x000000000000006C: 18 00 06 06 # 	movq 	0(%6), 	%6
0x0000000000000070: 28 06 20 02 # 	movq 	%6, 	32(%SP)
0x0000000000000074: 56 00 00 04 # 	ldzwq 	@w3(printf), 	%4
0x0000000000000078: 5D 00 00 04 # 	shldwq 	@w2(printf), 	%4
0x000000000000007C: 5D 00 00 04 # 	shldwq 	@w1(printf), 	%4
0x0000000000000080: 5D 0E 3C 04 # 	shldwq 	@w0(printf), 	%4
0x0000000000000084: 40 04 03 00 # 	jmp 	%4, 	%RET
0x0000000000000088: 1E 10 02 04 # 	movswq 	16(%SP), 	%4
0x000000000000008C: 38 28 02 02 # 	addq 	40, 	%SP, 	%SP
#for.incr.L6:
0x0000000000000090: 18 F8 01 04 # 	movq 	-8(%FP), 	%4
0x0000000000000094: 38 01 04 05 # 	addq 	1, 	%4, 	%5
0x0000000000000098: 28 05 F8 01 # 	movq 	%5, 	-8(%FP)
0x000000000000009C: 41 FF FF E4 # 	jmp 	check.for.cond.L5
#for.end.L7:
0x00000000000000A0: 2A 00 10 01 # 	movw 	%0, 	16(%FP)
#leave.L4:
0x00000000000000A4: 38 00 01 02 # 	addq 	0, 	%FP, 	%SP
0x00000000000000A8: 18 08 02 01 # 	movq 	8(%SP), 	%FP
0x00000000000000AC: 18 00 02 03 # 	movq 	0(%SP), 	%RET
0x00000000000000B0: 40 03 00 00 # 	jmp 	%RET, 	%0
# from: /Users/lehn/lib/libulm.a(crt0.o)
#_start:
0x00000000000000B4: 56 00 00 02 # 	ldzwq 	0, 	%SP
0x00000000000000B8: 39 18 02 02 # 	subq 	24, 	%SP, 	%SP
0x00000000000000BC: 56 00 14 04 # 	ldzwq 	main, 	%4
0x00000000000000C0: 40 04 03 00 # 	jmp 	%4, 	%RET
0x00000000000000C4: 1E 10 02 04 # 	movswq 	rval(%SP), 	%4
0x00000000000000C8: 38 18 02 02 # 	addq 	24, 	%SP, 	%SP
0x00000000000000CC: 01 04 00 00 # 	halt 	%4
# from: /Users/lehn/lib/libulm.a(stdio.o)
#print_uint64:
0x00000000000000D0: 28 03 00 02 # 	movq 	%RET, 	0(%SP)
0x00000000000000D4: 28 01 08 02 # 	movq 	%FP, 	8(%SP)
0x00000000000000D8: 38 00 02 01 # 	addq 	0, 	%SP, 	%FP
0x00000000000000DC: 39 10 02 02 # 	subq 	16, 	%SP, 	%SP
0x00000000000000E0: 18 20 01 04 # 	movq 	32(%FP), 	%4
0x00000000000000E4: 56 00 0A 05 # 	ldzwq 	10, 	%5
0x00000000000000E8: 56 00 00 07 # 	ldzwq 	0, 	%7
0x00000000000000EC: 38 00 04 06 # 	addq 	0, 	%4, 	%6
0x00000000000000F0: 33 05 06 08 # 	divq 	%5, 	%6, 	%8
0x00000000000000F4: 2A 0A FE 01 # 	movw 	%10, 	-2(%FP)
0x00000000000000F8: 18 20 01 04 # 	movq 	32(%FP), 	%4
0x00000000000000FC: 56 00 0A 05 # 	ldzwq 	10, 	%5
0x0000000000000100: 56 00 00 07 # 	ldzwq 	0, 	%7
0x0000000000000104: 38 00 04 06 # 	addq 	0, 	%4, 	%6
0x0000000000000108: 33 05 06 08 # 	divq 	%5, 	%6, 	%8
0x000000000000010C: 28 08 20 01 # 	movq 	%8, 	32(%FP)
0x0000000000000110: 18 20 01 04 # 	movq 	32(%FP), 	%4
0x0000000000000114: 31 00 04 00 # 	subq 	%0, 	%4, 	%0
0x0000000000000118: 42 00 00 19 # 	jz 	else.L4
0x000000000000011C: 18 18 01 04 # 	movq 	24(%FP), 	%4
0x0000000000000120: 31 00 04 00 # 	subq 	%0, 	%4, 	%0
0x0000000000000124: 42 00 00 04 # 	jz 	.L5
0x0000000000000128: 18 18 01 04 # 	movq 	24(%FP), 	%4
0x000000000000012C: 39 01 04 05 # 	subq 	1, 	%4, 	%5
0x0000000000000130: 41 00 00 02 # 	jmp 	.L6
#.L5:
0x0000000000000134: 56 00 00 05 # 	ldzwq 	0, 	%5
#.L6:
0x0000000000000138: 28 05 18 01 # 	movq 	%5, 	24(%FP)
0x000000000000013C: 39 28 02 02 # 	subq 	40, 	%SP, 	%SP
0x0000000000000140: 1B 10 01 04 # 	movzbq 	16(%FP), 	%4
0x0000000000000144: 2B 04 10 02 # 	movb 	%4, 	16(%SP)
0x0000000000000148: 1B 11 01 04 # 	movzbq 	17(%FP), 	%4
0x000000000000014C: 2B 04 11 02 # 	movb 	%4, 	17(%SP)
0x0000000000000150: 18 18 01 04 # 	movq 	24(%FP), 	%4
0x0000000000000154: 28 04 18 02 # 	movq 	%4, 	24(%SP)
0x0000000000000158: 18 20 01 04 # 	movq 	32(%FP), 	%4
0x000000000000015C: 28 04 20 02 # 	movq 	%4, 	32(%SP)
0x0000000000000160: 56 00 00 04 # 	ldzwq 	@w3(print_uint64), 	%4
0x0000000000000164: 5D 00 00 04 # 	shldwq 	@w2(print_uint64), 	%4
0x0000000000000168: 5D 00 00 04 # 	shldwq 	@w1(print_uint64), 	%4
0x000000000000016C: 5D 00 D0 04 # 	shldwq 	@w0(print_uint64), 	%4
0x0000000000000170: 40 04 03 00 # 	jmp 	%4, 	%RET
0x0000000000000174: 38 28 02 02 # 	addq 	40, 	%SP, 	%SP
0x0000000000000178: 41 00 00 27 # 	jmp 	endif.L3
#else.L4:
0x000000000000017C: 56 00 01 04 # 	ldzwq 	1, 	%4
0x0000000000000180: 28 04 F0 01 # 	movq 	%4, 	-16(%FP)
#check.for.cond.L7:
0x0000000000000184: 18 F0 01 04 # 	movq 	-16(%FP), 	%4
0x0000000000000188: 18 18 01 05 # 	movq 	24(%FP), 	%5
0x000000000000018C: 31 05 04 00 # 	subq 	%5, 	%4, 	%0
0x0000000000000190: 49 00 00 14 # 	jae 	for.end.L9
0x0000000000000194: 39 18 02 02 # 	subq 	24, 	%SP, 	%SP
0x0000000000000198: 1B 11 01 04 # 	movzbq 	17(%FP), 	%4
0x000000000000019C: 31 00 04 00 # 	subq 	%0, 	%4, 	%0
0x00000000000001A0: 42 00 00 03 # 	jz 	.L10
0x00000000000001A4: 56 00 30 04 # 	ldzwq 	48, 	%4
0x00000000000001A8: 41 00 00 02 # 	jmp 	.L11
#.L10:
0x00000000000001AC: 56 00 20 04 # 	ldzwq 	32, 	%4
#.L11:
0x00000000000001B0: 2B 04 12 02 # 	movb 	%4, 	18(%SP)
0x00000000000001B4: 56 00 00 04 # 	ldzwq 	@w3(putchar), 	%4
0x00000000000001B8: 5D 00 00 04 # 	shldwq 	@w2(putchar), 	%4
0x00000000000001BC: 5D 00 00 04 # 	shldwq 	@w1(putchar), 	%4
0x00000000000001C0: 5D 0E A8 04 # 	shldwq 	@w0(putchar), 	%4
0x00000000000001C4: 40 04 03 00 # 	jmp 	%4, 	%RET
0x00000000000001C8: 1E 10 02 04 # 	movswq 	16(%SP), 	%4
0x00000000000001CC: 38 18 02 02 # 	addq 	24, 	%SP, 	%SP
#for.incr.L8:
0x00000000000001D0: 18 F0 01 04 # 	movq 	-16(%FP), 	%4
0x00000000000001D4: 38 01 04 05 # 	addq 	1, 	%4, 	%5
0x00000000000001D8: 28 05 F0 01 # 	movq 	%5, 	-16(%FP)
0x00000000000001DC: 41 FF FF EA # 	jmp 	check.for.cond.L7
#for.end.L9:
0x00000000000001E0: 1B 10 01 04 # 	movzbq 	16(%FP), 	%4
0x00000000000001E4: 31 00 04 00 # 	subq 	%0, 	%4, 	%0
0x00000000000001E8: 42 00 00 0B # 	jz 	endif.L12
0x00000000000001EC: 39 18 02 02 # 	subq 	24, 	%SP, 	%SP
0x00000000000001F0: 56 00 2D 04 # 	ldzwq 	45, 	%4
0x00000000000001F4: 2B 04 12 02 # 	movb 	%4, 	18(%SP)
0x00000000000001F8: 56 00 00 04 # 	ldzwq 	@w3(putchar), 	%4
0x00000000000001FC: 5D 00 00 04 # 	shldwq 	@w2(putchar), 	%4
0x0000000000000200: 5D 00 00 04 # 	shldwq 	@w1(putchar), 	%4
0x0000000000000204: 5D 0E A8 04 # 	shldwq 	@w0(putchar), 	%4
0x0000000000000208: 40 04 03 00 # 	jmp 	%4, 	%RET
0x000000000000020C: 1E 10 02 04 # 	movswq 	16(%SP), 	%4
0x0000000000000210: 38 18 02 02 # 	addq 	24, 	%SP, 	%SP
#endif.L12:
#endif.L3:
0x0000000000000214: 39 18 02 02 # 	subq 	24, 	%SP, 	%SP
0x0000000000000218: 1E FE 01 04 # 	movswq 	-2(%FP), 	%4
0x000000000000021C: 38 30 04 05 # 	addq 	48, 	%4, 	%5
0x0000000000000220: 2B 05 12 02 # 	movb 	%5, 	18(%SP)
0x0000000000000224: 56 00 00 04 # 	ldzwq 	@w3(putchar), 	%4
0x0000000000000228: 5D 00 00 04 # 	shldwq 	@w2(putchar), 	%4
0x000000000000022C: 5D 00 00 04 # 	shldwq 	@w1(putchar), 	%4
0x0000000000000230: 5D 0E A8 04 # 	shldwq 	@w0(putchar), 	%4
0x0000000000000234: 40 04 03 00 # 	jmp 	%4, 	%RET
0x0000000000000238: 1E 10 02 04 # 	movswq 	16(%SP), 	%4
0x000000000000023C: 38 18 02 02 # 	addq 	24, 	%SP, 	%SP
#leave.L2:
0x0000000000000240: 38 00 01 02 # 	addq 	0, 	%FP, 	%SP
0x0000000000000244: 18 08 02 01 # 	movq 	8(%SP), 	%FP
0x0000000000000248: 18 00 02 03 # 	movq 	0(%SP), 	%RET
0x000000000000024C: 40 03 00 00 # 	jmp 	%RET, 	%0
#print_int64_hex:
0x0000000000000250: 28 03 00 02 # 	movq 	%RET, 	0(%SP)
0x0000000000000254: 28 01 08 02 # 	movq 	%FP, 	8(%SP)
0x0000000000000258: 38 00 02 01 # 	addq 	0, 	%SP, 	%FP
0x000000000000025C: 39 10 02 02 # 	subq 	16, 	%SP, 	%SP
0x0000000000000260: 18 20 01 04 # 	movq 	32(%FP), 	%4
0x0000000000000264: 56 00 10 05 # 	ldzwq 	16, 	%5
0x0000000000000268: 56 00 00 07 # 	ldzwq 	0, 	%7
0x000000000000026C: 38 00 04 06 # 	addq 	0, 	%4, 	%6
0x0000000000000270: 33 05 06 08 # 	divq 	%5, 	%6, 	%8
0x0000000000000274: 2A 0A FE 01 # 	movw 	%10, 	-2(%FP)
0x0000000000000278: 18 20 01 04 # 	movq 	32(%FP), 	%4
0x000000000000027C: 56 00 10 05 # 	ldzwq 	16, 	%5
0x0000000000000280: 56 00 00 07 # 	ldzwq 	0, 	%7
0x0000000000000284: 38 00 04 06 # 	addq 	0, 	%4, 	%6
0x0000000000000288: 33 05 06 08 # 	divq 	%5, 	%6, 	%8
0x000000000000028C: 28 08 20 01 # 	movq 	%8, 	32(%FP)
0x0000000000000290: 18 20 01 04 # 	movq 	32(%FP), 	%4
0x0000000000000294: 31 00 04 00 # 	subq 	%0, 	%4, 	%0
0x0000000000000298: 42 00 00 17 # 	jz 	else.L15
0x000000000000029C: 18 18 01 04 # 	movq 	24(%FP), 	%4
0x00000000000002A0: 31 00 04 00 # 	subq 	%0, 	%4, 	%0
0x00000000000002A4: 42 00 00 04 # 	jz 	.L16
0x00000000000002A8: 18 18 01 04 # 	movq 	24(%FP), 	%4
0x00000000000002AC: 39 01 04 05 # 	subq 	1, 	%4, 	%5
0x00000000000002B0: 41 00 00 02 # 	jmp 	.L17
#.L16:
0x00000000000002B4: 56 00 00 05 # 	ldzwq 	0, 	%5
#.L17:
0x00000000000002B8: 28 05 18 01 # 	movq 	%5, 	24(%FP)
0x00000000000002BC: 39 28 02 02 # 	subq 	40, 	%SP, 	%SP
0x00000000000002C0: 1B 10 01 04 # 	movzbq 	16(%FP), 	%4
0x00000000000002C4: 2B 04 10 02 # 	movb 	%4, 	16(%SP)
0x00000000000002C8: 18 18 01 04 # 	movq 	24(%FP), 	%4
0x00000000000002CC: 28 04 18 02 # 	movq 	%4, 	24(%SP)
0x00000000000002D0: 18 20 01 04 # 	movq 	32(%FP), 	%4
0x00000000000002D4: 28 04 20 02 # 	movq 	%4, 	32(%SP)
0x00000000000002D8: 56 00 00 04 # 	ldzwq 	@w3(print_int64_hex), 	%4
0x00000000000002DC: 5D 00 00 04 # 	shldwq 	@w2(print_int64_hex), 	%4
0x00000000000002E0: 5D 00 00 04 # 	shldwq 	@w1(print_int64_hex), 	%4
0x00000000000002E4: 5D 02 50 04 # 	shldwq 	@w0(print_int64_hex), 	%4
0x00000000000002E8: 40 04 03 00 # 	jmp 	%4, 	%RET
0x00000000000002EC: 38 28 02 02 # 	addq 	40, 	%SP, 	%SP
0x00000000000002F0: 41 00 00 1A # 	jmp 	endif.L14
#else.L15:
0x00000000000002F4: 56 00 01 04 # 	ldzwq 	1, 	%4
0x00000000000002F8: 28 04 F0 01 # 	movq 	%4, 	-16(%FP)
#check.for.cond.L18:
0x00000000000002FC: 18 F0 01 04 # 	movq 	-16(%FP), 	%4
0x0000000000000300: 18 18 01 05 # 	movq 	24(%FP), 	%5
0x0000000000000304: 31 05 04 00 # 	subq 	%5, 	%4, 	%0
0x0000000000000308: 49 00 00 14 # 	jae 	for.end.L20
0x000000000000030C: 39 18 02 02 # 	subq 	24, 	%SP, 	%SP
0x0000000000000310: 1B 10 01 04 # 	movzbq 	16(%FP), 	%4
0x0000000000000314: 31 00 04 00 # 	subq 	%0, 	%4, 	%0
0x0000000000000318: 42 00 00 03 # 	jz 	.L21
0x000000000000031C: 56 00 30 04 # 	ldzwq 	48, 	%4
0x0000000000000320: 41 00 00 02 # 	jmp 	.L22
#.L21:
0x0000000000000324: 56 00 20 04 # 	ldzwq 	32, 	%4
#.L22:
0x0000000000000328: 2B 04 12 02 # 	movb 	%4, 	18(%SP)
0x000000000000032C: 56 00 00 04 # 	ldzwq 	@w3(putchar), 	%4
0x0000000000000330: 5D 00 00 04 # 	shldwq 	@w2(putchar), 	%4
0x0000000000000334: 5D 00 00 04 # 	shldwq 	@w1(putchar), 	%4
0x0000000000000338: 5D 0E A8 04 # 	shldwq 	@w0(putchar), 	%4
0x000000000000033C: 40 04 03 00 # 	jmp 	%4, 	%RET
0x0000000000000340: 1E 10 02 04 # 	movswq 	16(%SP), 	%4
0x0000000000000344: 38 18 02 02 # 	addq 	24, 	%SP, 	%SP
#for.incr.L19:
0x0000000000000348: 18 F0 01 04 # 	movq 	-16(%FP), 	%4
0x000000000000034C: 38 01 04 05 # 	addq 	1, 	%4, 	%5
0x0000000000000350: 28 05 F0 01 # 	movq 	%5, 	-16(%FP)
0x0000000000000354: 41 FF FF EA # 	jmp 	check.for.cond.L18
#for.end.L20:
#endif.L14:
0x0000000000000358: 1E FE 01 04 # 	movswq 	-2(%FP), 	%4
0x000000000000035C: 39 0A 04 00 # 	subq 	10, 	%4, 	%0
0x0000000000000360: 45 00 00 0D # 	jge 	else.L24
0x0000000000000364: 39 18 02 02 # 	subq 	24, 	%SP, 	%SP
0x0000000000000368: 1E FE 01 04 # 	movswq 	-2(%FP), 	%4
0x000000000000036C: 38 30 04 05 # 	addq 	48, 	%4, 	%5
0x0000000000000370: 2B 05 12 02 # 	movb 	%5, 	18(%SP)
0x0000000000000374: 56 00 00 04 # 	ldzwq 	@w3(putchar), 	%4
0x0000000000000378: 5D 00 00 04 # 	shldwq 	@w2(putchar), 	%4
0x000000000000037C: 5D 00 00 04 # 	shldwq 	@w1(putchar), 	%4
0x0000000000000380: 5D 0E A8 04 # 	shldwq 	@w0(putchar), 	%4
0x0000000000000384: 40 04 03 00 # 	jmp 	%4, 	%RET
0x0000000000000388: 1E 10 02 04 # 	movswq 	16(%SP), 	%4
0x000000000000038C: 38 18 02 02 # 	addq 	24, 	%SP, 	%SP
0x0000000000000390: 41 00 00 0D # 	jmp 	endif.L23
#else.L24:
0x0000000000000394: 39 18 02 02 # 	subq 	24, 	%SP, 	%SP
0x0000000000000398: 1E FE 01 04 # 	movswq 	-2(%FP), 	%4
0x000000000000039C: 39 0A 04 05 # 	subq 	10, 	%4, 	%5
0x00000000000003A0: 38 61 05 04 # 	addq 	97, 	%5, 	%4
0x00000000000003A4: 2B 04 12 02 # 	movb 	%4, 	18(%SP)
0x00000000000003A8: 56 00 00 04 # 	ldzwq 	@w3(putchar), 	%4
0x00000000000003AC: 5D 00 00 04 # 	shldwq 	@w2(putchar), 	%4
0x00000000000003B0: 5D 00 00 04 # 	shldwq 	@w1(putchar), 	%4
0x00000000000003B4: 5D 0E A8 04 # 	shldwq 	@w0(putchar), 	%4
0x00000000000003B8: 40 04 03 00 # 	jmp 	%4, 	%RET
0x00000000000003BC: 1E 10 02 04 # 	movswq 	16(%SP), 	%4
0x00000000000003C0: 38 18 02 02 # 	addq 	24, 	%SP, 	%SP
#leave.L13:
#endif.L23:
0x00000000000003C4: 38 00 01 02 # 	addq 	0, 	%FP, 	%SP
0x00000000000003C8: 18 08 02 01 # 	movq 	8(%SP), 	%FP
0x00000000000003CC: 18 00 02 03 # 	movq 	0(%SP), 	%RET
0x00000000000003D0: 40 03 00 00 # 	jmp 	%RET, 	%0
#print_uint64_oct:
0x00000000000003D4: 28 03 00 02 # 	movq 	%RET, 	0(%SP)
0x00000000000003D8: 28 01 08 02 # 	movq 	%FP, 	8(%SP)
0x00000000000003DC: 38 00 02 01 # 	addq 	0, 	%SP, 	%FP
0x00000000000003E0: 39 10 02 02 # 	subq 	16, 	%SP, 	%SP
0x00000000000003E4: 18 20 01 04 # 	movq 	32(%FP), 	%4
0x00000000000003E8: 56 00 08 05 # 	ldzwq 	8, 	%5
0x00000000000003EC: 56 00 00 07 # 	ldzwq 	0, 	%7
0x00000000000003F0: 38 00 04 06 # 	addq 	0, 	%4, 	%6
0x00000000000003F4: 33 05 06 08 # 	divq 	%5, 	%6, 	%8
0x00000000000003F8: 2A 0A FE 01 # 	movw 	%10, 	-2(%FP)
0x00000000000003FC: 18 20 01 04 # 	movq 	32(%FP), 	%4
0x0000000000000400: 56 00 08 05 # 	ldzwq 	8, 	%5
0x0000000000000404: 56 00 00 07 # 	ldzwq 	0, 	%7
0x0000000000000408: 38 00 04 06 # 	addq 	0, 	%4, 	%6
0x000000000000040C: 33 05 06 08 # 	divq 	%5, 	%6, 	%8
0x0000000000000410: 28 08 20 01 # 	movq 	%8, 	32(%FP)
0x0000000000000414: 18 20 01 04 # 	movq 	32(%FP), 	%4
0x0000000000000418: 31 00 04 00 # 	subq 	%0, 	%4, 	%0
0x000000000000041C: 42 00 00 17 # 	jz 	else.L27
0x0000000000000420: 18 18 01 04 # 	movq 	24(%FP), 	%4
0x0000000000000424: 31 00 04 00 # 	subq 	%0, 	%4, 	%0
0x0000000000000428: 42 00 00 04 # 	jz 	.L28
0x000000000000042C: 18 18 01 04 # 	movq 	24(%FP), 	%4
0x0000000000000430: 39 01 04 05 # 	subq 	1, 	%4, 	%5
0x0000000000000434: 41 00 00 02 # 	jmp 	.L29
#.L28:
0x0000000000000438: 56 00 00 05 # 	ldzwq 	0, 	%5
#.L29:
0x000000000000043C: 28 05 18 01 # 	movq 	%5, 	24(%FP)
0x0000000000000440: 39 28 02 02 # 	subq 	40, 	%SP, 	%SP
0x0000000000000444: 1B 10 01 04 # 	movzbq 	16(%FP), 	%4
0x0000000000000448: 2B 04 10 02 # 	movb 	%4, 	16(%SP)
0x000000000000044C: 18 18 01 04 # 	movq 	24(%FP), 	%4
0x0000000000000450: 28 04 18 02 # 	movq 	%4, 	24(%SP)
0x0000000000000454: 18 20 01 04 # 	movq 	32(%FP), 	%4
0x0000000000000458: 28 04 20 02 # 	movq 	%4, 	32(%SP)
0x000000000000045C: 56 00 00 04 # 	ldzwq 	@w3(print_uint64_oct), 	%4
0x0000000000000460: 5D 00 00 04 # 	shldwq 	@w2(print_uint64_oct), 	%4
0x0000000000000464: 5D 00 00 04 # 	shldwq 	@w1(print_uint64_oct), 	%4
0x0000000000000468: 5D 03 D4 04 # 	shldwq 	@w0(print_uint64_oct), 	%4
0x000000000000046C: 40 04 03 00 # 	jmp 	%4, 	%RET
0x0000000000000470: 38 28 02 02 # 	addq 	40, 	%SP, 	%SP
0x0000000000000474: 41 00 00 1A # 	jmp 	endif.L26
#else.L27:
0x0000000000000478: 56 00 01 04 # 	ldzwq 	1, 	%4
0x000000000000047C: 28 04 F0 01 # 	movq 	%4, 	-16(%FP)
#check.for.cond.L30:
0x0000000000000480: 18 F0 01 04 # 	movq 	-16(%FP), 	%4
0x0000000000000484: 18 18 01 05 # 	movq 	24(%FP), 	%5
0x0000000000000488: 31 05 04 00 # 	subq 	%5, 	%4, 	%0
0x000000000000048C: 49 00 00 14 # 	jae 	for.end.L32
0x0000000000000490: 39 18 02 02 # 	subq 	24, 	%SP, 	%SP
0x0000000000000494: 1B 10 01 04 # 	movzbq 	16(%FP), 	%4
0x0000000000000498: 31 00 04 00 # 	subq 	%0, 	%4, 	%0
0x000000000000049C: 42 00 00 03 # 	jz 	.L33
0x00000000000004A0: 56 00 30 04 # 	ldzwq 	48, 	%4
0x00000000000004A4: 41 00 00 02 # 	jmp 	.L34
#.L33:
0x00000000000004A8: 56 00 20 04 # 	ldzwq 	32, 	%4
#.L34:
0x00000000000004AC: 2B 04 12 02 # 	movb 	%4, 	18(%SP)
0x00000000000004B0: 56 00 00 04 # 	ldzwq 	@w3(putchar), 	%4
0x00000000000004B4: 5D 00 00 04 # 	shldwq 	@w2(putchar), 	%4
0x00000000000004B8: 5D 00 00 04 # 	shldwq 	@w1(putchar), 	%4
0x00000000000004BC: 5D 0E A8 04 # 	shldwq 	@w0(putchar), 	%4
0x00000000000004C0: 40 04 03 00 # 	jmp 	%4, 	%RET
0x00000000000004C4: 1E 10 02 04 # 	movswq 	16(%SP), 	%4
0x00000000000004C8: 38 18 02 02 # 	addq 	24, 	%SP, 	%SP
#for.incr.L31:
0x00000000000004CC: 18 F0 01 04 # 	movq 	-16(%FP), 	%4
0x00000000000004D0: 38 01 04 05 # 	addq 	1, 	%4, 	%5
0x00000000000004D4: 28 05 F0 01 # 	movq 	%5, 	-16(%FP)
0x00000000000004D8: 41 FF FF EA # 	jmp 	check.for.cond.L30
#for.end.L32:
#endif.L26:
0x00000000000004DC: 39 18 02 02 # 	subq 	24, 	%SP, 	%SP
0x00000000000004E0: 1E FE 01 04 # 	movswq 	-2(%FP), 	%4
0x00000000000004E4: 38 30 04 05 # 	addq 	48, 	%4, 	%5
0x00000000000004E8: 2B 05 12 02 # 	movb 	%5, 	18(%SP)
0x00000000000004EC: 56 00 00 04 # 	ldzwq 	@w3(putchar), 	%4
0x00000000000004F0: 5D 00 00 04 # 	shldwq 	@w2(putchar), 	%4
0x00000000000004F4: 5D 00 00 04 # 	shldwq 	@w1(putchar), 	%4
0x00000000000004F8: 5D 0E A8 04 # 	shldwq 	@w0(putchar), 	%4
0x00000000000004FC: 40 04 03 00 # 	jmp 	%4, 	%RET
0x0000000000000500: 1E 10 02 04 # 	movswq 	16(%SP), 	%4
0x0000000000000504: 38 18 02 02 # 	addq 	24, 	%SP, 	%SP
#leave.L25:
0x0000000000000508: 38 00 01 02 # 	addq 	0, 	%FP, 	%SP
0x000000000000050C: 18 08 02 01 # 	movq 	8(%SP), 	%FP
0x0000000000000510: 18 00 02 03 # 	movq 	0(%SP), 	%RET
0x0000000000000514: 40 03 00 00 # 	jmp 	%RET, 	%0
#print_int64:
0x0000000000000518: 28 03 00 02 # 	movq 	%RET, 	0(%SP)
0x000000000000051C: 28 01 08 02 # 	movq 	%FP, 	8(%SP)
0x0000000000000520: 38 00 02 01 # 	addq 	0, 	%SP, 	%FP
0x0000000000000524: 39 10 02 02 # 	subq 	16, 	%SP, 	%SP
0x0000000000000528: 56 00 00 04 # 	ldzwq 	0, 	%4
0x000000000000052C: 5D 00 00 04 # 	shldwq 	0, 	%4
0x0000000000000530: 5D 00 00 04 # 	shldwq 	0, 	%4
0x0000000000000534: 5D 00 00 04 # 	shldwq 	0, 	%4
0x0000000000000538: 2B 04 FF 01 # 	movb 	%4, 	-1(%FP)
0x000000000000053C: 18 20 01 04 # 	movq 	32(%FP), 	%4
0x0000000000000540: 39 00 04 00 # 	subq 	0, 	%4, 	%0
0x0000000000000544: 45 00 00 0F # 	jge 	endif.L36
0x0000000000000548: 56 00 00 04 # 	ldzwq 	0, 	%4
0x000000000000054C: 5D 00 00 04 # 	shldwq 	0, 	%4
0x0000000000000550: 5D 00 00 04 # 	shldwq 	0, 	%4
0x0000000000000554: 5D 00 01 04 # 	shldwq 	1, 	%4
0x0000000000000558: 2B 04 FF 01 # 	movb 	%4, 	-1(%FP)
0x000000000000055C: 18 20 01 04 # 	movq 	32(%FP), 	%4
0x0000000000000560: 31 04 00 04 # 	subq 	%4, 	%0, 	%4
0x0000000000000564: 28 04 20 01 # 	movq 	%4, 	32(%FP)
0x0000000000000568: 18 18 01 04 # 	movq 	24(%FP), 	%4
0x000000000000056C: 31 00 04 00 # 	subq 	%0, 	%4, 	%0
0x0000000000000570: 42 00 00 04 # 	jz 	endif.L37
0x0000000000000574: 18 18 01 04 # 	movq 	24(%FP), 	%4
0x0000000000000578: 39 01 04 05 # 	subq 	1, 	%4, 	%5
0x000000000000057C: 28 05 18 01 # 	movq 	%5, 	24(%FP)
#endif.L37:
#endif.L36:
0x0000000000000580: 39 28 02 02 # 	subq 	40, 	%SP, 	%SP
0x0000000000000584: 1B FF 01 04 # 	movzbq 	-1(%FP), 	%4
0x0000000000000588: 2B 04 10 02 # 	movb 	%4, 	16(%SP)
0x000000000000058C: 1B 10 01 04 # 	movzbq 	16(%FP), 	%4
0x0000000000000590: 2B 04 11 02 # 	movb 	%4, 	17(%SP)
0x0000000000000594: 18 18 01 04 # 	movq 	24(%FP), 	%4
0x0000000000000598: 28 04 18 02 # 	movq 	%4, 	24(%SP)
0x000000000000059C: 18 20 01 04 # 	movq 	32(%FP), 	%4
0x00000000000005A0: 28 04 20 02 # 	movq 	%4, 	32(%SP)
0x00000000000005A4: 56 00 00 04 # 	ldzwq 	@w3(print_uint64), 	%4
0x00000000000005A8: 5D 00 00 04 # 	shldwq 	@w2(print_uint64), 	%4
0x00000000000005AC: 5D 00 00 04 # 	shldwq 	@w1(print_uint64), 	%4
0x00000000000005B0: 5D 00 D0 04 # 	shldwq 	@w0(print_uint64), 	%4
0x00000000000005B4: 40 04 03 00 # 	jmp 	%4, 	%RET
0x00000000000005B8: 38 28 02 02 # 	addq 	40, 	%SP, 	%SP
#leave.L35:
0x00000000000005BC: 38 00 01 02 # 	addq 	0, 	%FP, 	%SP
0x00000000000005C0: 18 08 02 01 # 	movq 	8(%SP), 	%FP
0x00000000000005C4: 18 00 02 03 # 	movq 	0(%SP), 	%RET
0x00000000000005C8: 40 03 00 00 # 	jmp 	%RET, 	%0
#puts_:
0x00000000000005CC: 28 03 00 02 # 	movq 	%RET, 	0(%SP)
0x00000000000005D0: 28 01 08 02 # 	movq 	%FP, 	8(%SP)
0x00000000000005D4: 38 00 02 01 # 	addq 	0, 	%SP, 	%FP
0x00000000000005D8: 39 10 02 02 # 	subq 	16, 	%SP, 	%SP
0x00000000000005DC: 18 18 01 04 # 	movq 	24(%FP), 	%4
0x00000000000005E0: 31 00 04 00 # 	subq 	%0, 	%4, 	%0
0x00000000000005E4: 43 00 00 10 # 	jnz 	endif.L39
0x00000000000005E8: 39 20 02 02 # 	subq 	32, 	%SP, 	%SP
0x00000000000005EC: 56 00 00 04 # 	ldzwq 	@w3(str.L0), 	%4
0x00000000000005F0: 5D 00 00 04 # 	shldwq 	@w2(str.L0), 	%4
0x00000000000005F4: 5D 00 00 04 # 	shldwq 	@w1(str.L0), 	%4
0x00000000000005F8: 5D 0F 28 04 # 	shldwq 	@w0(str.L0), 	%4
0x00000000000005FC: 28 04 18 02 # 	movq 	%4, 	24(%SP)
0x0000000000000600: 56 00 00 04 # 	ldzwq 	@w3(puts_), 	%4
0x0000000000000604: 5D 00 00 04 # 	shldwq 	@w2(puts_), 	%4
0x0000000000000608: 5D 00 00 04 # 	shldwq 	@w1(puts_), 	%4
0x000000000000060C: 5D 05 CC 04 # 	shldwq 	@w0(puts_), 	%4
0x0000000000000610: 40 04 03 00 # 	jmp 	%4, 	%RET
0x0000000000000614: 1E 10 02 04 # 	movswq 	16(%SP), 	%4
0x0000000000000618: 38 20 02 02 # 	addq 	32, 	%SP, 	%SP
0x000000000000061C: 2A 04 10 01 # 	movw 	%4, 	16(%FP)
0x0000000000000620: 41 00 00 17 # 	jmp 	leave.L38
#check.while.cond.L40:
#endif.L39:
0x0000000000000624: 18 18 01 04 # 	movq 	24(%FP), 	%4
0x0000000000000628: 1B 00 04 04 # 	movzbq 	0(%4), 	%4
0x000000000000062C: 31 00 04 00 # 	subq 	%0, 	%4, 	%0
0x0000000000000630: 42 00 00 10 # 	jz 	while.end.L41
0x0000000000000634: 39 18 02 02 # 	subq 	24, 	%SP, 	%SP
0x0000000000000638: 18 18 01 04 # 	movq 	24(%FP), 	%4
0x000000000000063C: 1B 00 04 04 # 	movzbq 	0(%4), 	%4
0x0000000000000640: 2B 04 12 02 # 	movb 	%4, 	18(%SP)
0x0000000000000644: 56 00 00 04 # 	ldzwq 	@w3(putchar), 	%4
0x0000000000000648: 5D 00 00 04 # 	shldwq 	@w2(putchar), 	%4
0x000000000000064C: 5D 00 00 04 # 	shldwq 	@w1(putchar), 	%4
0x0000000000000650: 5D 0E A8 04 # 	shldwq 	@w0(putchar), 	%4
0x0000000000000654: 40 04 03 00 # 	jmp 	%4, 	%RET
0x0000000000000658: 1E 10 02 04 # 	movswq 	16(%SP), 	%4
0x000000000000065C: 38 18 02 02 # 	addq 	24, 	%SP, 	%SP
0x0000000000000660: 18 18 01 04 # 	movq 	24(%FP), 	%4
0x0000000000000664: 38 01 04 05 # 	addq 	1, 	%4, 	%5
0x0000000000000668: 28 05 18 01 # 	movq 	%5, 	24(%FP)
0x000000000000066C: 41 FF FF EE # 	jmp 	check.while.cond.L40
#while.end.L41:
0x0000000000000670: 56 00 01 04 # 	ldzwq 	1, 	%4
0x0000000000000674: 2A 04 10 01 # 	movw 	%4, 	16(%FP)
0x0000000000000678: 41 00 00 01 # 	jmp 	leave.L38
#leave.L38:
0x000000000000067C: 38 00 01 02 # 	addq 	0, 	%FP, 	%SP
0x0000000000000680: 18 08 02 01 # 	movq 	8(%SP), 	%FP
0x0000000000000684: 18 00 02 03 # 	movq 	0(%SP), 	%RET
0x0000000000000688: 40 03 00 00 # 	jmp 	%RET, 	%0
#puts:
0x000000000000068C: 28 03 00 02 # 	movq 	%RET, 	0(%SP)
0x0000000000000690: 28 01 08 02 # 	movq 	%FP, 	8(%SP)
0x0000000000000694: 38 00 02 01 # 	addq 	0, 	%SP, 	%FP
0x0000000000000698: 39 10 02 02 # 	subq 	16, 	%SP, 	%SP
0x000000000000069C: 39 20 02 02 # 	subq 	32, 	%SP, 	%SP
0x00000000000006A0: 18 18 01 04 # 	movq 	24(%FP), 	%4
0x00000000000006A4: 28 04 18 02 # 	movq 	%4, 	24(%SP)
0x00000000000006A8: 56 00 00 04 # 	ldzwq 	@w3(puts_), 	%4
0x00000000000006AC: 5D 00 00 04 # 	shldwq 	@w2(puts_), 	%4
0x00000000000006B0: 5D 00 00 04 # 	shldwq 	@w1(puts_), 	%4
0x00000000000006B4: 5D 05 CC 04 # 	shldwq 	@w0(puts_), 	%4
0x00000000000006B8: 40 04 03 00 # 	jmp 	%4, 	%RET
0x00000000000006BC: 1E 10 02 04 # 	movswq 	16(%SP), 	%4
0x00000000000006C0: 38 20 02 02 # 	addq 	32, 	%SP, 	%SP
0x00000000000006C4: 39 18 02 02 # 	subq 	24, 	%SP, 	%SP
0x00000000000006C8: 56 00 0A 04 # 	ldzwq 	10, 	%4
0x00000000000006CC: 2B 04 12 02 # 	movb 	%4, 	18(%SP)
0x00000000000006D0: 56 00 00 04 # 	ldzwq 	@w3(putchar), 	%4
0x00000000000006D4: 5D 00 00 04 # 	shldwq 	@w2(putchar), 	%4
0x00000000000006D8: 5D 00 00 04 # 	shldwq 	@w1(putchar), 	%4
0x00000000000006DC: 5D 0E A8 04 # 	shldwq 	@w0(putchar), 	%4
0x00000000000006E0: 40 04 03 00 # 	jmp 	%4, 	%RET
0x00000000000006E4: 1E 10 02 04 # 	movswq 	16(%SP), 	%4
0x00000000000006E8: 38 18 02 02 # 	addq 	24, 	%SP, 	%SP
0x00000000000006EC: 56 00 01 04 # 	ldzwq 	1, 	%4
0x00000000000006F0: 2A 04 10 01 # 	movw 	%4, 	16(%FP)
0x00000000000006F4: 41 00 00 01 # 	jmp 	leave.L42
#leave.L42:
0x00000000000006F8: 38 00 01 02 # 	addq 	0, 	%FP, 	%SP
0x00000000000006FC: 18 08 02 01 # 	movq 	8(%SP), 	%FP
0x0000000000000700: 18 00 02 03 # 	movq 	0(%SP), 	%RET
0x0000000000000704: 40 03 00 00 # 	jmp 	%RET, 	%0
#vprintf:
0x0000000000000708: 28 03 00 02 # 	movq 	%RET, 	0(%SP)
0x000000000000070C: 28 01 08 02 # 	movq 	%FP, 	8(%SP)
0x0000000000000710: 38 00 02 01 # 	addq 	0, 	%SP, 	%FP
0x0000000000000714: 39 38 02 02 # 	subq 	56, 	%SP, 	%SP
0x0000000000000718: 56 00 00 04 # 	ldzwq 	0, 	%4
0x000000000000071C: 28 04 F8 01 # 	movq 	%4, 	-8(%FP)
#check.for.cond.L44:
0x0000000000000720: 18 18 01 04 # 	movq 	24(%FP), 	%4
0x0000000000000724: 1B 00 04 04 # 	movzbq 	0(%4), 	%4
0x0000000000000728: 31 00 04 00 # 	subq 	%0, 	%4, 	%0
0x000000000000072C: 42 00 01 BD # 	jz 	for.end.L46
0x0000000000000730: 56 00 00 04 # 	ldzwq 	0, 	%4
0x0000000000000734: 5D 00 00 04 # 	shldwq 	0, 	%4
0x0000000000000738: 5D 00 00 04 # 	shldwq 	0, 	%4
0x000000000000073C: 5D 00 00 04 # 	shldwq 	0, 	%4
0x0000000000000740: 2B 04 F7 01 # 	movb 	%4, 	-9(%FP)
0x0000000000000744: 56 00 00 04 # 	ldzwq 	0, 	%4
0x0000000000000748: 28 04 E8 01 # 	movq 	%4, 	-24(%FP)
0x000000000000074C: 56 00 00 04 # 	ldzwq 	0, 	%4
0x0000000000000750: 5D 00 00 04 # 	shldwq 	0, 	%4
0x0000000000000754: 5D 00 00 04 # 	shldwq 	0, 	%4
0x0000000000000758: 5D 00 00 04 # 	shldwq 	0, 	%4
0x000000000000075C: 2B 04 E7 01 # 	movb 	%4, 	-25(%FP)
0x0000000000000760: 18 18 01 04 # 	movq 	24(%FP), 	%4
0x0000000000000764: 1B 00 04 04 # 	movzbq 	0(%4), 	%4
0x0000000000000768: 39 25 04 00 # 	subq 	37, 	%4, 	%0
0x000000000000076C: 42 00 00 0D # 	jz 	else.L48
0x0000000000000770: 39 18 02 02 # 	subq 	24, 	%SP, 	%SP
0x0000000000000774: 18 18 01 04 # 	movq 	24(%FP), 	%4
0x0000000000000778: 1B 00 04 04 # 	movzbq 	0(%4), 	%4
0x000000000000077C: 2B 04 12 02 # 	movb 	%4, 	18(%SP)
0x0000000000000780: 56 00 00 04 # 	ldzwq 	@w3(putchar), 	%4
0x0000000000000784: 5D 00 00 04 # 	shldwq 	@w2(putchar), 	%4
0x0000000000000788: 5D 00 00 04 # 	shldwq 	@w1(putchar), 	%4
0x000000000000078C: 5D 0E A8 04 # 	shldwq 	@w0(putchar), 	%4
0x0000000000000790: 40 04 03 00 # 	jmp 	%4, 	%RET
0x0000000000000794: 1E 10 02 04 # 	movswq 	16(%SP), 	%4
0x0000000000000798: 38 18 02 02 # 	addq 	24, 	%SP, 	%SP
0x000000000000079C: 41 00 01 9D # 	jmp 	endif.L47
#else.L48:
0x00000000000007A0: 18 18 01 04 # 	movq 	24(%FP), 	%4
0x00000000000007A4: 38 01 04 05 # 	addq 	1, 	%4, 	%5
0x00000000000007A8: 28 05 18 01 # 	movq 	%5, 	24(%FP)
0x00000000000007AC: 18 18 01 04 # 	movq 	24(%FP), 	%4
0x00000000000007B0: 1B 00 04 04 # 	movzbq 	0(%4), 	%4
0x00000000000007B4: 39 25 04 00 # 	subq 	37, 	%4, 	%0
0x00000000000007B8: 43 00 00 0D # 	jnz 	else.L50
0x00000000000007BC: 39 18 02 02 # 	subq 	24, 	%SP, 	%SP
0x00000000000007C0: 18 18 01 04 # 	movq 	24(%FP), 	%4
0x00000000000007C4: 1B 00 04 04 # 	movzbq 	0(%4), 	%4
0x00000000000007C8: 2B 04 12 02 # 	movb 	%4, 	18(%SP)
0x00000000000007CC: 56 00 00 04 # 	ldzwq 	@w3(putchar), 	%4
0x00000000000007D0: 5D 00 00 04 # 	shldwq 	@w2(putchar), 	%4
0x00000000000007D4: 5D 00 00 04 # 	shldwq 	@w1(putchar), 	%4
0x00000000000007D8: 5D 0E A8 04 # 	shldwq 	@w0(putchar), 	%4
0x00000000000007DC: 40 04 03 00 # 	jmp 	%4, 	%RET
0x00000000000007E0: 1E 10 02 04 # 	movswq 	16(%SP), 	%4
0x00000000000007E4: 38 18 02 02 # 	addq 	24, 	%SP, 	%SP
0x00000000000007E8: 41 00 01 8A # 	jmp 	endif.L49
#else.L50:
0x00000000000007EC: 18 18 01 04 # 	movq 	24(%FP), 	%4
0x00000000000007F0: 1B 00 04 04 # 	movzbq 	0(%4), 	%4
0x00000000000007F4: 39 2B 04 00 # 	subq 	43, 	%4, 	%0
0x00000000000007F8: 43 00 00 09 # 	jnz 	endif.L51
0x00000000000007FC: 18 18 01 04 # 	movq 	24(%FP), 	%4
0x0000000000000800: 38 01 04 05 # 	addq 	1, 	%4, 	%5
0x0000000000000804: 28 05 18 01 # 	movq 	%5, 	24(%FP)
0x0000000000000808: 56 00 00 04 # 	ldzwq 	0, 	%4
0x000000000000080C: 5D 00 00 04 # 	shldwq 	0, 	%4
0x0000000000000810: 5D 00 00 04 # 	shldwq 	0, 	%4
0x0000000000000814: 5D 00 01 04 # 	shldwq 	1, 	%4
0x0000000000000818: 2B 04 E7 01 # 	movb 	%4, 	-25(%FP)
#endif.L51:
0x000000000000081C: 18 18 01 04 # 	movq 	24(%FP), 	%4
0x0000000000000820: 1B 00 04 04 # 	movzbq 	0(%4), 	%4
0x0000000000000824: 39 30 04 00 # 	subq 	48, 	%4, 	%0
0x0000000000000828: 43 00 00 09 # 	jnz 	endif.L52
0x000000000000082C: 56 00 00 04 # 	ldzwq 	0, 	%4
0x0000000000000830: 5D 00 00 04 # 	shldwq 	0, 	%4
0x0000000000000834: 5D 00 00 04 # 	shldwq 	0, 	%4
0x0000000000000838: 5D 00 01 04 # 	shldwq 	1, 	%4
0x000000000000083C: 2B 04 F7 01 # 	movb 	%4, 	-9(%FP)
0x0000000000000840: 18 18 01 04 # 	movq 	24(%FP), 	%4
0x0000000000000844: 38 01 04 05 # 	addq 	1, 	%4, 	%5
0x0000000000000848: 28 05 18 01 # 	movq 	%5, 	24(%FP)
#check.while.cond.L53:
#endif.L52:
0x000000000000084C: 18 18 01 04 # 	movq 	24(%FP), 	%4
0x0000000000000850: 1B 00 04 04 # 	movzbq 	0(%4), 	%4
0x0000000000000854: 39 30 04 00 # 	subq 	48, 	%4, 	%0
0x0000000000000858: 48 00 00 10 # 	jb 	while.end.L54
0x000000000000085C: 18 18 01 04 # 	movq 	24(%FP), 	%4
0x0000000000000860: 1B 00 04 04 # 	movzbq 	0(%4), 	%4
0x0000000000000864: 39 39 04 00 # 	subq 	57, 	%4, 	%0
0x0000000000000868: 4B 00 00 0C # 	ja 	while.end.L54
0x000000000000086C: 18 E8 01 04 # 	movq 	-24(%FP), 	%4
0x0000000000000870: 3C 0A 04 05 # 	imulq 	10, 	%4, 	%5
0x0000000000000874: 18 18 01 04 # 	movq 	24(%FP), 	%4
0x0000000000000878: 1B 00 04 04 # 	movzbq 	0(%4), 	%4
0x000000000000087C: 30 04 05 06 # 	addq 	%4, 	%5, 	%6
0x0000000000000880: 39 30 06 04 # 	subq 	48, 	%6, 	%4
0x0000000000000884: 28 04 E8 01 # 	movq 	%4, 	-24(%FP)
0x0000000000000888: 18 18 01 04 # 	movq 	24(%FP), 	%4
0x000000000000088C: 38 01 04 05 # 	addq 	1, 	%4, 	%5
0x0000000000000890: 28 05 18 01 # 	movq 	%5, 	24(%FP)
0x0000000000000894: 41 FF FF EE # 	jmp 	check.while.cond.L53
#while.end.L54:
0x0000000000000898: 18 18 01 04 # 	movq 	24(%FP), 	%4
0x000000000000089C: 1B 00 04 04 # 	movzbq 	0(%4), 	%4
0x00000000000008A0: 39 73 04 00 # 	subq 	115, 	%4, 	%0
0x00000000000008A4: 43 00 00 10 # 	jnz 	else.L56
0x00000000000008A8: 39 20 02 02 # 	subq 	32, 	%SP, 	%SP
0x00000000000008AC: 18 20 01 04 # 	movq 	32(%FP), 	%4
0x00000000000008B0: 18 F8 01 05 # 	movq 	-8(%FP), 	%5
0x00000000000008B4: 3C 08 05 05 # 	imulq 	8, 	%5, 	%5
0x00000000000008B8: 30 05 04 06 # 	addq 	%5, 	%4, 	%6
0x00000000000008BC: 18 00 06 06 # 	movq 	0(%6), 	%6
0x00000000000008C0: 28 06 18 02 # 	movq 	%6, 	24(%SP)
0x00000000000008C4: 56 00 00 04 # 	ldzwq 	@w3(puts_), 	%4
0x00000000000008C8: 5D 00 00 04 # 	shldwq 	@w2(puts_), 	%4
0x00000000000008CC: 5D 00 00 04 # 	shldwq 	@w1(puts_), 	%4
0x00000000000008D0: 5D 05 CC 04 # 	shldwq 	@w0(puts_), 	%4
0x00000000000008D4: 40 04 03 00 # 	jmp 	%4, 	%RET
0x00000000000008D8: 1E 10 02 04 # 	movswq 	16(%SP), 	%4
0x00000000000008DC: 38 20 02 02 # 	addq 	32, 	%SP, 	%SP
0x00000000000008E0: 41 00 01 49 # 	jmp 	endif.L55
#else.L56:
0x00000000000008E4: 18 18 01 04 # 	movq 	24(%FP), 	%4
0x00000000000008E8: 1B 00 04 04 # 	movzbq 	0(%4), 	%4
0x00000000000008EC: 39 63 04 00 # 	subq 	99, 	%4, 	%0
0x00000000000008F0: 43 00 00 10 # 	jnz 	else.L58
0x00000000000008F4: 39 18 02 02 # 	subq 	24, 	%SP, 	%SP
0x00000000000008F8: 18 20 01 04 # 	movq 	32(%FP), 	%4
0x00000000000008FC: 18 F8 01 05 # 	movq 	-8(%FP), 	%5
0x0000000000000900: 3C 08 05 05 # 	imulq 	8, 	%5, 	%5
0x0000000000000904: 30 05 04 06 # 	addq 	%5, 	%4, 	%6
0x0000000000000908: 18 00 06 06 # 	movq 	0(%6), 	%6
0x000000000000090C: 2B 06 12 02 # 	movb 	%6, 	18(%SP)
0x0000000000000910: 56 00 00 04 # 	ldzwq 	@w3(putchar), 	%4
0x0000000000000914: 5D 00 00 04 # 	shldwq 	@w2(putchar), 	%4
0x0000000000000918: 5D 00 00 04 # 	shldwq 	@w1(putchar), 	%4
0x000000000000091C: 5D 0E A8 04 # 	shldwq 	@w0(putchar), 	%4
0x0000000000000920: 40 04 03 00 # 	jmp 	%4, 	%RET
0x0000000000000924: 1E 10 02 04 # 	movswq 	16(%SP), 	%4
0x0000000000000928: 38 18 02 02 # 	addq 	24, 	%SP, 	%SP
0x000000000000092C: 41 00 01 36 # 	jmp 	endif.L57
#else.L58:
0x0000000000000930: 56 00 02 04 # 	ldzwq 	2, 	%4
0x0000000000000934: 28 04 D8 01 # 	movq 	%4, 	-40(%FP)
0x0000000000000938: 18 18 01 04 # 	movq 	24(%FP), 	%4
0x000000000000093C: 1B 00 04 04 # 	movzbq 	0(%4), 	%4
0x0000000000000940: 39 6C 04 00 # 	subq 	108, 	%4, 	%0
0x0000000000000944: 43 00 00 11 # 	jnz 	else.L60
0x0000000000000948: 18 18 01 04 # 	movq 	24(%FP), 	%4
0x000000000000094C: 38 01 04 05 # 	addq 	1, 	%4, 	%5
0x0000000000000950: 28 05 18 01 # 	movq 	%5, 	24(%FP)
0x0000000000000954: 18 18 01 04 # 	movq 	24(%FP), 	%4
0x0000000000000958: 1B 00 04 04 # 	movzbq 	0(%4), 	%4
0x000000000000095C: 39 6C 04 00 # 	subq 	108, 	%4, 	%0
0x0000000000000960: 43 00 00 07 # 	jnz 	else.L62
0x0000000000000964: 18 18 01 04 # 	movq 	24(%FP), 	%4
0x0000000000000968: 38 01 04 05 # 	addq 	1, 	%4, 	%5
0x000000000000096C: 28 05 18 01 # 	movq 	%5, 	24(%FP)
0x0000000000000970: 56 00 04 04 # 	ldzwq 	4, 	%4
0x0000000000000974: 28 04 D8 01 # 	movq 	%4, 	-40(%FP)
0x0000000000000978: 41 00 00 03 # 	jmp 	endif.L61
#else.L62:
0x000000000000097C: 56 00 08 04 # 	ldzwq 	8, 	%4
0x0000000000000980: 28 04 D8 01 # 	movq 	%4, 	-40(%FP)
#endif.L61:
0x0000000000000984: 41 00 00 22 # 	jmp 	endif.L59
#else.L60:
0x0000000000000988: 18 18 01 04 # 	movq 	24(%FP), 	%4
0x000000000000098C: 1B 00 04 04 # 	movzbq 	0(%4), 	%4
0x0000000000000990: 39 7A 04 00 # 	subq 	122, 	%4, 	%0
0x0000000000000994: 42 00 00 05 # 	jz 	.L65
0x0000000000000998: 18 18 01 04 # 	movq 	24(%FP), 	%4
0x000000000000099C: 1B 00 04 04 # 	movzbq 	0(%4), 	%4
0x00000000000009A0: 39 74 04 00 # 	subq 	116, 	%4, 	%0
0x00000000000009A4: 43 00 00 07 # 	jnz 	else.L64
#.L65:
0x00000000000009A8: 18 18 01 04 # 	movq 	24(%FP), 	%4
0x00000000000009AC: 38 01 04 05 # 	addq 	1, 	%4, 	%5
0x00000000000009B0: 28 05 18 01 # 	movq 	%5, 	24(%FP)
0x00000000000009B4: 56 00 08 04 # 	ldzwq 	8, 	%4
0x00000000000009B8: 28 04 D8 01 # 	movq 	%4, 	-40(%FP)
0x00000000000009BC: 41 00 00 14 # 	jmp 	endif.L63
#else.L64:
0x00000000000009C0: 18 18 01 04 # 	movq 	24(%FP), 	%4
0x00000000000009C4: 1B 00 04 04 # 	movzbq 	0(%4), 	%4
0x00000000000009C8: 39 68 04 00 # 	subq 	104, 	%4, 	%0
0x00000000000009CC: 43 00 00 10 # 	jnz 	endif.L66
0x00000000000009D0: 18 18 01 04 # 	movq 	24(%FP), 	%4
0x00000000000009D4: 38 01 04 05 # 	addq 	1, 	%4, 	%5
0x00000000000009D8: 28 05 18 01 # 	movq 	%5, 	24(%FP)
0x00000000000009DC: 18 18 01 04 # 	movq 	24(%FP), 	%4
0x00000000000009E0: 1B 00 04 04 # 	movzbq 	0(%4), 	%4
0x00000000000009E4: 39 68 04 00 # 	subq 	104, 	%4, 	%0
0x00000000000009E8: 43 00 00 07 # 	jnz 	else.L68
0x00000000000009EC: 18 18 01 04 # 	movq 	24(%FP), 	%4
0x00000000000009F0: 38 01 04 05 # 	addq 	1, 	%4, 	%5
0x00000000000009F4: 28 05 18 01 # 	movq 	%5, 	24(%FP)
0x00000000000009F8: 56 00 01 04 # 	ldzwq 	1, 	%4
0x00000000000009FC: 28 04 D8 01 # 	movq 	%4, 	-40(%FP)
0x0000000000000A00: 41 00 00 03 # 	jmp 	endif.L67
#else.L68:
0x0000000000000A04: 56 00 02 04 # 	ldzwq 	2, 	%4
0x0000000000000A08: 28 04 D8 01 # 	movq 	%4, 	-40(%FP)
#endif.L67:
#endif.L66:
#endif.L63:
#endif.L59:
0x0000000000000A0C: 18 18 01 04 # 	movq 	24(%FP), 	%4
0x0000000000000A10: 1B 00 04 04 # 	movzbq 	0(%4), 	%4
0x0000000000000A14: 39 64 04 00 # 	subq 	100, 	%4, 	%0
0x0000000000000A18: 42 00 00 05 # 	jz 	.L71
0x0000000000000A1C: 18 18 01 04 # 	movq 	24(%FP), 	%4
0x0000000000000A20: 1B 00 04 04 # 	movzbq 	0(%4), 	%4
0x0000000000000A24: 39 69 04 00 # 	subq 	105, 	%4, 	%0
0x0000000000000A28: 43 00 00 3C # 	jnz 	else.L70
#.L71:
0x0000000000000A2C: 18 20 01 04 # 	movq 	32(%FP), 	%4
0x0000000000000A30: 18 F8 01 05 # 	movq 	-8(%FP), 	%5
0x0000000000000A34: 3C 08 05 05 # 	imulq 	8, 	%5, 	%5
0x0000000000000A38: 30 05 04 06 # 	addq 	%5, 	%4, 	%6
0x0000000000000A3C: 38 08 06 04 # 	addq 	8, 	%6, 	%4
0x0000000000000A40: 18 D8 01 05 # 	movq 	-40(%FP), 	%5
0x0000000000000A44: 31 05 04 06 # 	subq 	%5, 	%4, 	%6
0x0000000000000A48: 28 06 D0 01 # 	movq 	%6, 	-48(%FP)
0x0000000000000A4C: 18 D8 01 04 # 	movq 	-40(%FP), 	%4
0x0000000000000A50: 39 01 04 00 # 	subq 	1, 	%4, 	%0
0x0000000000000A54: 43 00 00 04 # 	jnz 	.L72
0x0000000000000A58: 18 D0 01 04 # 	movq 	-48(%FP), 	%4
0x0000000000000A5C: 1F 00 04 04 # 	movsbq 	0(%4), 	%4
0x0000000000000A60: 41 00 00 0F # 	jmp 	.L73
#.L72:
0x0000000000000A64: 18 D8 01 05 # 	movq 	-40(%FP), 	%5
0x0000000000000A68: 39 02 05 00 # 	subq 	2, 	%5, 	%0
0x0000000000000A6C: 43 00 00 04 # 	jnz 	.L74
0x0000000000000A70: 18 D0 01 04 # 	movq 	-48(%FP), 	%4
0x0000000000000A74: 1E 00 04 04 # 	movswq 	0(%4), 	%4
0x0000000000000A78: 41 00 00 09 # 	jmp 	.L75
#.L74:
0x0000000000000A7C: 18 D8 01 05 # 	movq 	-40(%FP), 	%5
0x0000000000000A80: 39 04 05 00 # 	subq 	4, 	%5, 	%0
0x0000000000000A84: 43 00 00 04 # 	jnz 	.L76
0x0000000000000A88: 18 D0 01 04 # 	movq 	-48(%FP), 	%4
0x0000000000000A8C: 1D 00 04 04 # 	movslq 	0(%4), 	%4
0x0000000000000A90: 41 00 00 03 # 	jmp 	.L77
#.L76:
0x0000000000000A94: 18 D0 01 04 # 	movq 	-48(%FP), 	%4
0x0000000000000A98: 18 00 04 04 # 	movq 	0(%4), 	%4
#.L77:
#.L75:
#.L73:
0x0000000000000A9C: 28 04 C8 01 # 	movq 	%4, 	-56(%FP)
0x0000000000000AA0: 1B E7 01 04 # 	movzbq 	-25(%FP), 	%4
0x0000000000000AA4: 31 00 04 00 # 	subq 	%0, 	%4, 	%0
0x0000000000000AA8: 42 00 00 0E # 	jz 	endif.L78
0x0000000000000AAC: 18 C8 01 04 # 	movq 	-56(%FP), 	%4
0x0000000000000AB0: 39 00 04 00 # 	subq 	0, 	%4, 	%0
0x0000000000000AB4: 44 00 00 0B # 	jl 	endif.L78
0x0000000000000AB8: 39 18 02 02 # 	subq 	24, 	%SP, 	%SP
0x0000000000000ABC: 56 00 2B 04 # 	ldzwq 	43, 	%4
0x0000000000000AC0: 2B 04 12 02 # 	movb 	%4, 	18(%SP)
0x0000000000000AC4: 56 00 00 04 # 	ldzwq 	@w3(putchar), 	%4
0x0000000000000AC8: 5D 00 00 04 # 	shldwq 	@w2(putchar), 	%4
0x0000000000000ACC: 5D 00 00 04 # 	shldwq 	@w1(putchar), 	%4
0x0000000000000AD0: 5D 0E A8 04 # 	shldwq 	@w0(putchar), 	%4
0x0000000000000AD4: 40 04 03 00 # 	jmp 	%4, 	%RET
0x0000000000000AD8: 1E 10 02 04 # 	movswq 	16(%SP), 	%4
0x0000000000000ADC: 38 18 02 02 # 	addq 	24, 	%SP, 	%SP
#endif.L78:
0x0000000000000AE0: 39 28 02 02 # 	subq 	40, 	%SP, 	%SP
0x0000000000000AE4: 1B F7 01 04 # 	movzbq 	-9(%FP), 	%4
0x0000000000000AE8: 2B 04 10 02 # 	movb 	%4, 	16(%SP)
0x0000000000000AEC: 18 E8 01 04 # 	movq 	-24(%FP), 	%4
0x0000000000000AF0: 28 04 18 02 # 	movq 	%4, 	24(%SP)
0x0000000000000AF4: 18 C8 01 04 # 	movq 	-56(%FP), 	%4
0x0000000000000AF8: 28 04 20 02 # 	movq 	%4, 	32(%SP)
0x0000000000000AFC: 56 00 00 04 # 	ldzwq 	@w3(print_int64), 	%4
0x0000000000000B00: 5D 00 00 04 # 	shldwq 	@w2(print_int64), 	%4
0x0000000000000B04: 5D 00 00 04 # 	shldwq 	@w1(print_int64), 	%4
0x0000000000000B08: 5D 05 18 04 # 	shldwq 	@w0(print_int64), 	%4
0x0000000000000B0C: 40 04 03 00 # 	jmp 	%4, 	%RET
0x0000000000000B10: 38 28 02 02 # 	addq 	40, 	%SP, 	%SP
0x0000000000000B14: 41 00 00 BC # 	jmp 	endif.L69
#else.L70:
0x0000000000000B18: 18 18 01 04 # 	movq 	24(%FP), 	%4
0x0000000000000B1C: 1B 00 04 04 # 	movzbq 	0(%4), 	%4
0x0000000000000B20: 39 75 04 00 # 	subq 	117, 	%4, 	%0
0x0000000000000B24: 43 00 00 31 # 	jnz 	else.L80
0x0000000000000B28: 18 20 01 04 # 	movq 	32(%FP), 	%4
0x0000000000000B2C: 18 F8 01 05 # 	movq 	-8(%FP), 	%5
0x0000000000000B30: 3C 08 05 05 # 	imulq 	8, 	%5, 	%5
0x0000000000000B34: 30 05 04 06 # 	addq 	%5, 	%4, 	%6
0x0000000000000B38: 38 08 06 04 # 	addq 	8, 	%6, 	%4
0x0000000000000B3C: 18 D8 01 05 # 	movq 	-40(%FP), 	%5
0x0000000000000B40: 31 05 04 06 # 	subq 	%5, 	%4, 	%6
0x0000000000000B44: 28 06 D0 01 # 	movq 	%6, 	-48(%FP)
0x0000000000000B48: 18 D8 01 04 # 	movq 	-40(%FP), 	%4
0x0000000000000B4C: 39 01 04 00 # 	subq 	1, 	%4, 	%0
0x0000000000000B50: 43 00 00 04 # 	jnz 	.L81
0x0000000000000B54: 18 D0 01 04 # 	movq 	-48(%FP), 	%4
0x0000000000000B58: 1B 00 04 04 # 	movzbq 	0(%4), 	%4
0x0000000000000B5C: 41 00 00 0F # 	jmp 	.L82
#.L81:
0x0000000000000B60: 18 D8 01 05 # 	movq 	-40(%FP), 	%5
0x0000000000000B64: 39 02 05 00 # 	subq 	2, 	%5, 	%0
0x0000000000000B68: 43 00 00 04 # 	jnz 	.L83
0x0000000000000B6C: 18 D0 01 04 # 	movq 	-48(%FP), 	%4
0x0000000000000B70: 1A 00 04 04 # 	movzwq 	0(%4), 	%4
0x0000000000000B74: 41 00 00 09 # 	jmp 	.L84
#.L83:
0x0000000000000B78: 18 D8 01 05 # 	movq 	-40(%FP), 	%5
0x0000000000000B7C: 39 04 05 00 # 	subq 	4, 	%5, 	%0
0x0000000000000B80: 43 00 00 04 # 	jnz 	.L85
0x0000000000000B84: 18 D0 01 04 # 	movq 	-48(%FP), 	%4
0x0000000000000B88: 19 00 04 04 # 	movzlq 	0(%4), 	%4
0x0000000000000B8C: 41 00 00 03 # 	jmp 	.L86
#.L85:
0x0000000000000B90: 18 D0 01 04 # 	movq 	-48(%FP), 	%4
0x0000000000000B94: 18 00 04 04 # 	movq 	0(%4), 	%4
#.L86:
#.L84:
#.L82:
0x0000000000000B98: 28 04 C8 01 # 	movq 	%4, 	-56(%FP)
0x0000000000000B9C: 39 28 02 02 # 	subq 	40, 	%SP, 	%SP
0x0000000000000BA0: 56 00 00 04 # 	ldzwq 	0, 	%4
0x0000000000000BA4: 5D 00 00 04 # 	shldwq 	0, 	%4
0x0000000000000BA8: 5D 00 00 04 # 	shldwq 	0, 	%4
0x0000000000000BAC: 5D 00 00 04 # 	shldwq 	0, 	%4
0x0000000000000BB0: 2B 04 10 02 # 	movb 	%4, 	16(%SP)
0x0000000000000BB4: 1B F7 01 04 # 	movzbq 	-9(%FP), 	%4
0x0000000000000BB8: 2B 04 11 02 # 	movb 	%4, 	17(%SP)
0x0000000000000BBC: 18 E8 01 04 # 	movq 	-24(%FP), 	%4
0x0000000000000BC0: 28 04 18 02 # 	movq 	%4, 	24(%SP)
0x0000000000000BC4: 18 C8 01 04 # 	movq 	-56(%FP), 	%4
0x0000000000000BC8: 28 04 20 02 # 	movq 	%4, 	32(%SP)
0x0000000000000BCC: 56 00 00 04 # 	ldzwq 	@w3(print_uint64), 	%4
0x0000000000000BD0: 5D 00 00 04 # 	shldwq 	@w2(print_uint64), 	%4
0x0000000000000BD4: 5D 00 00 04 # 	shldwq 	@w1(print_uint64), 	%4
0x0000000000000BD8: 5D 00 D0 04 # 	shldwq 	@w0(print_uint64), 	%4
0x0000000000000BDC: 40 04 03 00 # 	jmp 	%4, 	%RET
0x0000000000000BE0: 38 28 02 02 # 	addq 	40, 	%SP, 	%SP
0x0000000000000BE4: 41 00 00 88 # 	jmp 	endif.L79
#else.L80:
0x0000000000000BE8: 18 18 01 04 # 	movq 	24(%FP), 	%4
0x0000000000000BEC: 1B 00 04 04 # 	movzbq 	0(%4), 	%4
0x0000000000000BF0: 39 6F 04 00 # 	subq 	111, 	%4, 	%0
0x0000000000000BF4: 43 00 00 2C # 	jnz 	else.L88
0x0000000000000BF8: 18 20 01 04 # 	movq 	32(%FP), 	%4
0x0000000000000BFC: 18 F8 01 05 # 	movq 	-8(%FP), 	%5
0x0000000000000C00: 3C 08 05 05 # 	imulq 	8, 	%5, 	%5
0x0000000000000C04: 30 05 04 06 # 	addq 	%5, 	%4, 	%6
0x0000000000000C08: 38 08 06 04 # 	addq 	8, 	%6, 	%4
0x0000000000000C0C: 18 D8 01 05 # 	movq 	-40(%FP), 	%5
0x0000000000000C10: 31 05 04 06 # 	subq 	%5, 	%4, 	%6
0x0000000000000C14: 28 06 D0 01 # 	movq 	%6, 	-48(%FP)
0x0000000000000C18: 18 D8 01 04 # 	movq 	-40(%FP), 	%4
0x0000000000000C1C: 39 01 04 00 # 	subq 	1, 	%4, 	%0
0x0000000000000C20: 43 00 00 04 # 	jnz 	.L89
0x0000000000000C24: 18 D0 01 04 # 	movq 	-48(%FP), 	%4
0x0000000000000C28: 1B 00 04 04 # 	movzbq 	0(%4), 	%4
0x0000000000000C2C: 41 00 00 0F # 	jmp 	.L90
#.L89:
0x0000000000000C30: 18 D8 01 05 # 	movq 	-40(%FP), 	%5
0x0000000000000C34: 39 02 05 00 # 	subq 	2, 	%5, 	%0
0x0000000000000C38: 43 00 00 04 # 	jnz 	.L91
0x0000000000000C3C: 18 D0 01 04 # 	movq 	-48(%FP), 	%4
0x0000000000000C40: 1A 00 04 04 # 	movzwq 	0(%4), 	%4
0x0000000000000C44: 41 00 00 09 # 	jmp 	.L92
#.L91:
0x0000000000000C48: 18 D8 01 05 # 	movq 	-40(%FP), 	%5
0x0000000000000C4C: 39 04 05 00 # 	subq 	4, 	%5, 	%0
0x0000000000000C50: 43 00 00 04 # 	jnz 	.L93
0x0000000000000C54: 18 D0 01 04 # 	movq 	-48(%FP), 	%4
0x0000000000000C58: 19 00 04 04 # 	movzlq 	0(%4), 	%4
0x0000000000000C5C: 41 00 00 03 # 	jmp 	.L94
#.L93:
0x0000000000000C60: 18 D0 01 04 # 	movq 	-48(%FP), 	%4
0x0000000000000C64: 18 00 04 04 # 	movq 	0(%4), 	%4
#.L94:
#.L92:
#.L90:
0x0000000000000C68: 28 04 C8 01 # 	movq 	%4, 	-56(%FP)
0x0000000000000C6C: 39 28 02 02 # 	subq 	40, 	%SP, 	%SP
0x0000000000000C70: 1B F7 01 04 # 	movzbq 	-9(%FP), 	%4
0x0000000000000C74: 2B 04 10 02 # 	movb 	%4, 	16(%SP)
0x0000000000000C78: 18 E8 01 04 # 	movq 	-24(%FP), 	%4
0x0000000000000C7C: 28 04 18 02 # 	movq 	%4, 	24(%SP)
0x0000000000000C80: 18 C8 01 04 # 	movq 	-56(%FP), 	%4
0x0000000000000C84: 28 04 20 02 # 	movq 	%4, 	32(%SP)
0x0000000000000C88: 56 00 00 04 # 	ldzwq 	@w3(print_uint64_oct), 	%4
0x0000000000000C8C: 5D 00 00 04 # 	shldwq 	@w2(print_uint64_oct), 	%4
0x0000000000000C90: 5D 00 00 04 # 	shldwq 	@w1(print_uint64_oct), 	%4
0x0000000000000C94: 5D 03 D4 04 # 	shldwq 	@w0(print_uint64_oct), 	%4
0x0000000000000C98: 40 04 03 00 # 	jmp 	%4, 	%RET
0x0000000000000C9C: 38 28 02 02 # 	addq 	40, 	%SP, 	%SP
0x0000000000000CA0: 41 00 00 59 # 	jmp 	endif.L87
#else.L88:
0x0000000000000CA4: 18 18 01 04 # 	movq 	24(%FP), 	%4
0x0000000000000CA8: 1B 00 04 04 # 	movzbq 	0(%4), 	%4
0x0000000000000CAC: 39 78 04 00 # 	subq 	120, 	%4, 	%0
0x0000000000000CB0: 43 00 00 2C # 	jnz 	else.L96
0x0000000000000CB4: 18 20 01 04 # 	movq 	32(%FP), 	%4
0x0000000000000CB8: 18 F8 01 05 # 	movq 	-8(%FP), 	%5
0x0000000000000CBC: 3C 08 05 05 # 	imulq 	8, 	%5, 	%5
0x0000000000000CC0: 30 05 04 06 # 	addq 	%5, 	%4, 	%6
0x0000000000000CC4: 38 08 06 04 # 	addq 	8, 	%6, 	%4
0x0000000000000CC8: 18 D8 01 05 # 	movq 	-40(%FP), 	%5
0x0000000000000CCC: 31 05 04 06 # 	subq 	%5, 	%4, 	%6
0x0000000000000CD0: 28 06 D0 01 # 	movq 	%6, 	-48(%FP)
0x0000000000000CD4: 18 D8 01 04 # 	movq 	-40(%FP), 	%4
0x0000000000000CD8: 39 01 04 00 # 	subq 	1, 	%4, 	%0
0x0000000000000CDC: 43 00 00 04 # 	jnz 	.L97
0x0000000000000CE0: 18 D0 01 04 # 	movq 	-48(%FP), 	%4
0x0000000000000CE4: 1B 00 04 04 # 	movzbq 	0(%4), 	%4
0x0000000000000CE8: 41 00 00 0F # 	jmp 	.L98
#.L97:
0x0000000000000CEC: 18 D8 01 05 # 	movq 	-40(%FP), 	%5
0x0000000000000CF0: 39 02 05 00 # 	subq 	2, 	%5, 	%0
0x0000000000000CF4: 43 00 00 04 # 	jnz 	.L99
0x0000000000000CF8: 18 D0 01 04 # 	movq 	-48(%FP), 	%4
0x0000000000000CFC: 1A 00 04 04 # 	movzwq 	0(%4), 	%4
0x0000000000000D00: 41 00 00 09 # 	jmp 	.L100
#.L99:
0x0000000000000D04: 18 D8 01 05 # 	movq 	-40(%FP), 	%5
0x0000000000000D08: 39 04 05 00 # 	subq 	4, 	%5, 	%0
0x0000000000000D0C: 43 00 00 04 # 	jnz 	.L101
0x0000000000000D10: 18 D0 01 04 # 	movq 	-48(%FP), 	%4
0x0000000000000D14: 19 00 04 04 # 	movzlq 	0(%4), 	%4
0x0000000000000D18: 41 00 00 03 # 	jmp 	.L102
#.L101:
0x0000000000000D1C: 18 D0 01 04 # 	movq 	-48(%FP), 	%4
0x0000000000000D20: 18 00 04 04 # 	movq 	0(%4), 	%4
#.L102:
#.L100:
#.L98:
0x0000000000000D24: 28 04 C8 01 # 	movq 	%4, 	-56(%FP)
0x0000000000000D28: 39 28 02 02 # 	subq 	40, 	%SP, 	%SP
0x0000000000000D2C: 1B F7 01 04 # 	movzbq 	-9(%FP), 	%4
0x0000000000000D30: 2B 04 10 02 # 	movb 	%4, 	16(%SP)
0x0000000000000D34: 18 E8 01 04 # 	movq 	-24(%FP), 	%4
0x0000000000000D38: 28 04 18 02 # 	movq 	%4, 	24(%SP)
0x0000000000000D3C: 18 C8 01 04 # 	movq 	-56(%FP), 	%4
0x0000000000000D40: 28 04 20 02 # 	movq 	%4, 	32(%SP)
0x0000000000000D44: 56 00 00 04 # 	ldzwq 	@w3(print_int64_hex), 	%4
0x0000000000000D48: 5D 00 00 04 # 	shldwq 	@w2(print_int64_hex), 	%4
0x0000000000000D4C: 5D 00 00 04 # 	shldwq 	@w1(print_int64_hex), 	%4
0x0000000000000D50: 5D 02 50 04 # 	shldwq 	@w0(print_int64_hex), 	%4
0x0000000000000D54: 40 04 03 00 # 	jmp 	%4, 	%RET
0x0000000000000D58: 38 28 02 02 # 	addq 	40, 	%SP, 	%SP
0x0000000000000D5C: 41 00 00 2A # 	jmp 	endif.L95
#else.L96:
0x0000000000000D60: 18 18 01 04 # 	movq 	24(%FP), 	%4
0x0000000000000D64: 1B 00 04 04 # 	movzbq 	0(%4), 	%4
0x0000000000000D68: 39 70 04 00 # 	subq 	112, 	%4, 	%0
0x0000000000000D6C: 43 00 00 15 # 	jnz 	else.L104
0x0000000000000D70: 18 20 01 04 # 	movq 	32(%FP), 	%4
0x0000000000000D74: 18 F8 01 05 # 	movq 	-8(%FP), 	%5
0x0000000000000D78: 3C 08 05 05 # 	imulq 	8, 	%5, 	%5
0x0000000000000D7C: 30 05 04 06 # 	addq 	%5, 	%4, 	%6
0x0000000000000D80: 18 00 06 06 # 	movq 	0(%6), 	%6
0x0000000000000D84: 28 06 D0 01 # 	movq 	%6, 	-48(%FP)
0x0000000000000D88: 39 28 02 02 # 	subq 	40, 	%SP, 	%SP
0x0000000000000D8C: 1B F7 01 04 # 	movzbq 	-9(%FP), 	%4
0x0000000000000D90: 2B 04 10 02 # 	movb 	%4, 	16(%SP)
0x0000000000000D94: 18 E8 01 04 # 	movq 	-24(%FP), 	%4
0x0000000000000D98: 28 04 18 02 # 	movq 	%4, 	24(%SP)
0x0000000000000D9C: 18 D0 01 04 # 	movq 	-48(%FP), 	%4
0x0000000000000DA0: 28 04 20 02 # 	movq 	%4, 	32(%SP)
0x0000000000000DA4: 56 00 00 04 # 	ldzwq 	@w3(print_int64_hex), 	%4
0x0000000000000DA8: 5D 00 00 04 # 	shldwq 	@w2(print_int64_hex), 	%4
0x0000000000000DAC: 5D 00 00 04 # 	shldwq 	@w1(print_int64_hex), 	%4
0x0000000000000DB0: 5D 02 50 04 # 	shldwq 	@w0(print_int64_hex), 	%4
0x0000000000000DB4: 40 04 03 00 # 	jmp 	%4, 	%RET
0x0000000000000DB8: 38 28 02 02 # 	addq 	40, 	%SP, 	%SP
0x0000000000000DBC: 41 00 00 12 # 	jmp 	endif.L103
#else.L104:
0x0000000000000DC0: 39 28 02 02 # 	subq 	40, 	%SP, 	%SP
0x0000000000000DC4: 56 00 00 04 # 	ldzwq 	@w3(str.L1), 	%4
0x0000000000000DC8: 5D 00 00 04 # 	shldwq 	@w2(str.L1), 	%4
0x0000000000000DCC: 5D 00 00 04 # 	shldwq 	@w1(str.L1), 	%4
0x0000000000000DD0: 5D 0F 2F 04 # 	shldwq 	@w0(str.L1), 	%4
0x0000000000000DD4: 28 04 18 02 # 	movq 	%4, 	24(%SP)
0x0000000000000DD8: 18 18 01 04 # 	movq 	24(%FP), 	%4
0x0000000000000DDC: 1B 00 04 04 # 	movzbq 	0(%4), 	%4
0x0000000000000DE0: 28 04 20 02 # 	movq 	%4, 	32(%SP)
0x0000000000000DE4: 56 00 00 04 # 	ldzwq 	@w3(printf), 	%4
0x0000000000000DE8: 5D 00 00 04 # 	shldwq 	@w2(printf), 	%4
0x0000000000000DEC: 5D 00 00 04 # 	shldwq 	@w1(printf), 	%4
0x0000000000000DF0: 5D 0E 3C 04 # 	shldwq 	@w0(printf), 	%4
0x0000000000000DF4: 40 04 03 00 # 	jmp 	%4, 	%RET
0x0000000000000DF8: 1E 10 02 04 # 	movswq 	16(%SP), 	%4
0x0000000000000DFC: 38 28 02 02 # 	addq 	40, 	%SP, 	%SP
0x0000000000000E00: 41 00 00 04 # 	jmp 	for.incr.L45
#endif.L103:
#endif.L95:
#endif.L87:
#endif.L79:
#endif.L69:
#endif.L57:
#endif.L55:
0x0000000000000E04: 18 F8 01 04 # 	movq 	-8(%FP), 	%4
0x0000000000000E08: 38 01 04 05 # 	addq 	1, 	%4, 	%5
0x0000000000000E0C: 28 05 F8 01 # 	movq 	%5, 	-8(%FP)
#for.incr.L45:
#endif.L49:
#endif.L47:
0x0000000000000E10: 18 18 01 04 # 	movq 	24(%FP), 	%4
0x0000000000000E14: 38 01 04 05 # 	addq 	1, 	%4, 	%5
0x0000000000000E18: 28 05 18 01 # 	movq 	%5, 	24(%FP)
0x0000000000000E1C: 41 FF FE 41 # 	jmp 	check.for.cond.L44
#for.end.L46:
0x0000000000000E20: 56 00 01 04 # 	ldzwq 	1, 	%4
0x0000000000000E24: 2A 04 10 01 # 	movw 	%4, 	16(%FP)
0x0000000000000E28: 41 00 00 01 # 	jmp 	leave.L43
#leave.L43:
0x0000000000000E2C: 38 00 01 02 # 	addq 	0, 	%FP, 	%SP
0x0000000000000E30: 18 08 02 01 # 	movq 	8(%SP), 	%FP
0x0000000000000E34: 18 00 02 03 # 	movq 	0(%SP), 	%RET
0x0000000000000E38: 40 03 00 00 # 	jmp 	%RET, 	%0
#printf:
0x0000000000000E3C: 28 03 00 02 # 	movq 	%RET, 	0(%SP)
0x0000000000000E40: 28 01 08 02 # 	movq 	%FP, 	8(%SP)
0x0000000000000E44: 38 00 02 01 # 	addq 	0, 	%SP, 	%FP
0x0000000000000E48: 39 38 02 02 # 	subq 	56, 	%SP, 	%SP
0x0000000000000E4C: 38 18 01 04 # 	addq 	24, 	%FP, 	%4
0x0000000000000E50: 56 00 01 05 # 	ldzwq 	1, 	%5
0x0000000000000E54: 3C 08 05 05 # 	imulq 	8, 	%5, 	%5
0x0000000000000E58: 30 05 04 06 # 	addq 	%5, 	%4, 	%6
0x0000000000000E5C: 28 06 F8 01 # 	movq 	%6, 	-8(%FP)
0x0000000000000E60: 39 28 02 02 # 	subq 	40, 	%SP, 	%SP
0x0000000000000E64: 18 18 01 04 # 	movq 	24(%FP), 	%4
0x0000000000000E68: 28 04 18 02 # 	movq 	%4, 	24(%SP)
0x0000000000000E6C: 18 F8 01 04 # 	movq 	-8(%FP), 	%4
0x0000000000000E70: 28 04 20 02 # 	movq 	%4, 	32(%SP)
0x0000000000000E74: 56 00 00 04 # 	ldzwq 	@w3(vprintf), 	%4
0x0000000000000E78: 5D 00 00 04 # 	shldwq 	@w2(vprintf), 	%4
0x0000000000000E7C: 5D 00 00 04 # 	shldwq 	@w1(vprintf), 	%4
0x0000000000000E80: 5D 07 08 04 # 	shldwq 	@w0(vprintf), 	%4
0x0000000000000E84: 40 04 03 00 # 	jmp 	%4, 	%RET
0x0000000000000E88: 1E 10 02 04 # 	movswq 	16(%SP), 	%4
0x0000000000000E8C: 38 28 02 02 # 	addq 	40, 	%SP, 	%SP
0x0000000000000E90: 2A 04 10 01 # 	movw 	%4, 	16(%FP)
0x0000000000000E94: 41 00 00 01 # 	jmp 	leave.L105
#leave.L105:
0x0000000000000E98: 38 00 01 02 # 	addq 	0, 	%FP, 	%SP
0x0000000000000E9C: 18 08 02 01 # 	movq 	8(%SP), 	%FP
0x0000000000000EA0: 18 00 02 03 # 	movq 	0(%SP), 	%RET
0x0000000000000EA4: 40 03 00 00 # 	jmp 	%RET, 	%0
# from: /Users/lehn/lib/libulm.a(putchar.o)
#putchar:
0x0000000000000EA8: 28 03 00 02 # 	movq 	%RET, 	0(%SP)
0x0000000000000EAC: 28 01 08 02 # 	movq 	%FP, 	8(%SP)
0x0000000000000EB0: 38 00 02 01 # 	addq 	0, 	%SP, 	%FP
0x0000000000000EB4: 39 00 02 02 # 	subq 	0, 	%SP, 	%SP
0x0000000000000EB8: 1F 12 01 04 # 	movsbq 	18(%FP), 	%4
0x0000000000000EBC: 61 04 00 00 # 	putc 	%4
0x0000000000000EC0: 2A 04 10 01 # 	movw 	%4, 	16(%FP)
0x0000000000000EC4: 41 00 00 01 # 	jmp 	leave.L0
#leave.L0:
0x0000000000000EC8: 38 00 01 02 # 	addq 	0, 	%FP, 	%SP
0x0000000000000ECC: 18 08 02 01 # 	movq 	8(%SP), 	%FP
0x0000000000000ED0: 18 00 02 03 # 	movq 	0(%SP), 	%RET
0x0000000000000ED4: 40 03 00 00 # 	jmp 	%RET, 	%0
#DATA 8
# from: hello.o
#str.L0:
0x0000000000000ED8: 68 65 6C 6C 
                    6F 2C 20 77 
                    6F 72 6C 64 
                    21 0A 00    # 	.string 	"hello, world!\n"
#str.L1:
0x0000000000000EE7:          48 
                    61 6C 6C 6F 
                    20 57 65 6C 
                    74 20 F0 9F 
                    8D BA 21 0A 
                    00          # 	.string 	"Hallo Welt !\n"
#str.L2:
0x0000000000000EF9:    E4 BD A0 
                    E5 A5 BD E4 
                    B8 96 E7 95 
                    8C 21 0A 00 # 	.string 	"!\n"
#msg:
0x0000000000000F08: 00 00 00 00 
                    00 00 0E D8 # 	.quad 	str.L0 + 0
0x0000000000000F10: 00 00 00 00 
                    00 00 0E E7 # 	.quad 	str.L1 + 0
0x0000000000000F18: 00 00 00 00 
                    00 00 0E F9 # 	.quad 	str.L2 + 0
#str.L3:
0x0000000000000F20: 25 73 00    # 	.string 	"%s"
0x0000000000000F23:          FD 
                    FD FD FD FD #       (ulmld: padding for alignment)
# from: /Users/lehn/lib/libulm.a(stdio.o)
#str.L0:
0x0000000000000F28: 28 6E 75 6C 
                    6C 29 00    # 	.string 	"(null)"
#str.L1:
0x0000000000000F2F:          0A 
                    70 72 69 6E 
                    74 66 3A 20 
                    75 6E 65 78 
                    70 65 63 74 
                    65 64 20 66 
                    6F 72 6D 61 
                    74 20 73 70 
                    65 63 69 66 
                    69 65 72 20 
                    60 25 63 27 
                    0A 00       # 	.string 	"\nprintf: unexpected format specifier `%c'\n"
#BSS 1 0
#(begins at 0xF5A)
#SYMTAB 
T _start                      0x00000000000000B4
T main                        0x0000000000000014
D msg                         0x0000000000000F08
T printf                      0x0000000000000E3C
T putchar                     0x0000000000000EA8
T puts                        0x000000000000068C
T vprintf                     0x0000000000000708
a FP                          0x0000000000000001
a FP                          0x0000000000000001
a FP                          0x0000000000000001
a FP                          0x0000000000000001
a RET                         0x0000000000000003
a RET                         0x0000000000000003
a RET                         0x0000000000000003
a RET                         0x0000000000000003
a SP                          0x0000000000000002
a SP                          0x0000000000000002
a SP                          0x0000000000000002
a SP                          0x0000000000000002
a ZERO                        0x0000000000000000
a ZERO                        0x0000000000000000
a ZERO                        0x0000000000000000
t check.for.cond.L18          0x00000000000002FC
t check.for.cond.L30          0x0000000000000480
t check.for.cond.L44          0x0000000000000720
t check.for.cond.L5           0x000000000000002C
t check.for.cond.L7           0x0000000000000184
t check.while.cond.L40        0x0000000000000624
t check.while.cond.L53        0x000000000000084C
t else.L104                   0x0000000000000DC0
t else.L15                    0x00000000000002F4
t else.L24                    0x0000000000000394
t else.L27                    0x0000000000000478
t else.L4                     0x000000000000017C
t else.L48                    0x00000000000007A0
t else.L50                    0x00000000000007EC
t else.L56                    0x00000000000008E4
t else.L58                    0x0000000000000930
t else.L60                    0x0000000000000988
t else.L62                    0x000000000000097C
t else.L64                    0x00000000000009C0
t else.L68                    0x0000000000000A04
t else.L70                    0x0000000000000B18
t else.L80                    0x0000000000000BE8
t else.L88                    0x0000000000000CA4
t else.L96                    0x0000000000000D60
t endif.L103                  0x0000000000000E04
t endif.L12                   0x0000000000000214
t endif.L14                   0x0000000000000358
t endif.L23                   0x00000000000003C4
t endif.L26                   0x00000000000004DC
t endif.L3                    0x0000000000000214
t endif.L36                   0x0000000000000580
t endif.L37                   0x0000000000000580
t endif.L39                   0x0000000000000624
t endif.L47                   0x0000000000000E10
t endif.L49                   0x0000000000000E10
t endif.L51                   0x000000000000081C
t endif.L52                   0x000000000000084C
t endif.L55                   0x0000000000000E04
t endif.L57                   0x0000000000000E04
t endif.L59                   0x0000000000000A0C
t endif.L61                   0x0000000000000984
t endif.L63                   0x0000000000000A0C
t endif.L66                   0x0000000000000A0C
t endif.L67                   0x0000000000000A0C
t endif.L69                   0x0000000000000E04
t endif.L78                   0x0000000000000AE0
t endif.L79                   0x0000000000000E04
t endif.L87                   0x0000000000000E04
t endif.L95                   0x0000000000000E04
t for.end.L20                 0x0000000000000358
t for.end.L32                 0x00000000000004DC
t for.end.L46                 0x0000000000000E20
t for.end.L7                  0x00000000000000A0
t for.end.L9                  0x00000000000001E0
t for.incr.L19                0x0000000000000348
t for.incr.L31                0x00000000000004CC
t for.incr.L45                0x0000000000000E10
t for.incr.L6                 0x0000000000000090
t for.incr.L8                 0x00000000000001D0
a fp                          0x0000000000000008
t leave.L0                    0x0000000000000EC8
t leave.L105                  0x0000000000000E98
t leave.L13                   0x00000000000003C4
t leave.L2                    0x0000000000000240
t leave.L25                   0x0000000000000508
t leave.L35                   0x00000000000005BC
t leave.L38                   0x000000000000067C
t leave.L4                    0x00000000000000A4
t leave.L42                   0x00000000000006F8
t leave.L43                   0x0000000000000E2C
t print_int64                 0x0000000000000518
t print_int64_hex             0x0000000000000250
t print_uint64                0x00000000000000D0
t print_uint64_oct            0x00000000000003D4
t puts_                       0x00000000000005CC
a ret                         0x0000000000000000
a rval                        0x0000000000000010
d str.L0                      0x0000000000000000
d str.L0                      0x0000000000000050
d str.L1                      0x000000000000000F
d str.L1                      0x0000000000000057
d str.L2                      0x0000000000000021
d str.L3                      0x0000000000000048
t while.end.L41               0x0000000000000670
t while.end.L54               0x0000000000000898
